; Function Attrs: mustprogress nounwind uwtable
define dso_local void @_ZNK4llvm10AsmPrinter11emitSLEB128ElPKc(ptr nocapture noundef nonnull readonly align 8 dereferenceable(785) %0, i64 noundef %1, ptr noundef %2) local_unnamed_addr #0 align 2 {
  %4 = alloca %"class.llvm::Twine", align 8
  %5 = getelementptr inbounds nuw i8, ptr %0, i64 312
  %6 = load i8, ptr %5, align 8
  %7 = trunc i8 %6 to i1
  %8 = icmp ne ptr %2, null
  %or.cond = and i1 %8, %7
  br i1 %or.cond, label %9, label %19

9:                                                ; preds = %3
  %10 = getelementptr inbounds nuw i8, ptr %0, i64 80
  %11 = load ptr, ptr %10, align 8
  %12 = getelementptr inbounds nuw i8, ptr %4, i64 32
  %13 = getelementptr inbounds nuw i8, ptr %4, i64 33
  store i8 1, ptr %13, align 1
  %14 = load i8, ptr %2, align 1
  %.not.i = icmp eq i8 %14, 0
  br i1 %.not.i, label %_ZN4llvm5TwineC2EPKc.exit, label %15

15:                                               ; preds = %9
  store ptr %2, ptr %4, align 8
  br label %_ZN4llvm5TwineC2EPKc.exit

_ZN4llvm5TwineC2EPKc.exit:                        ; preds = %9, %15
  %storemerge.i = phi i8 [ 3, %15 ], [ 1, %9 ]
  store i8 %storemerge.i, ptr %12, align 8
  %16 = load ptr, ptr %11, align 8
  %17 = getelementptr inbounds i8, ptr %16, i64 120
  %18 = load ptr, ptr %17, align 8
  call void %18(ptr noundef nonnull align 8 dereferenceable(288) %11, ptr noundef nonnull align 8 dereferenceable(34) %4, i1 noundef zeroext true) #33
  br label %19

19:                                               ; preds = %_ZN4llvm5TwineC2EPKc.exit, %3
  %20 = getelementptr inbounds nuw i8, ptr %0, i64 80
  %21 = load ptr, ptr %20, align 8
  %22 = call noundef i32 @_ZN4llvm10MCStreamer19emitSLEB128IntValueEl(ptr noundef nonnull align 8 dereferenceable(288) %21, i64 noundef %1) #33
  ret void
}